; Function Attrs: nounwind uwtable
define dso_local i64 @rdbSaveAuxFieldStrInt(ptr noundef %0, ptr noundef %1, i64 noundef %2) local_unnamed_addr #0 {
  %4 = alloca i8, align 1
  %5 = alloca [21 x i8], align 16
  call void @llvm.lifetime.start.p0(i64 21, ptr nonnull %5) #23
  %6 = call i32 @ll2string(ptr noundef nonnull %5, i64 noundef 21, i64 noundef %2) #23
  %7 = call i64 @strlen(ptr noundef nonnull dereferenceable(1) %1) #27
  %8 = sext i32 %6 to i64
  call void @llvm.lifetime.start.p0(i64 1, ptr nonnull %4)
  store i8 -6, ptr %4, align 1, !tbaa !59
  %.not.i.i.i = icmp eq ptr %0, null
  br i1 %.not.i.i.i, label %.loopexit.i, label %9

9:                                                ; preds = %3
  %10 = getelementptr inbounds nuw i8, ptr %0, i64 48
  %11 = load i64, ptr %10, align 8, !tbaa !53
  %12 = and i64 %11, 6
  %.not.i.i.i.i = icmp eq i64 %12, 0
  br i1 %.not.i.i.i.i, label %.preheader.i.i.i.i, label %rdbSaveType.exit.thread.i

.preheader.i.i.i.i:                               ; preds = %9
  %13 = getelementptr inbounds nuw i8, ptr %0, i64 64
  %14 = getelementptr inbounds nuw i8, ptr %0, i64 32
  %15 = getelementptr inbounds nuw i8, ptr %0, i64 8
  %16 = getelementptr inbounds nuw i8, ptr %0, i64 56
  br label %17

17:                                               ; preds = %29, %.preheader.i.i.i.i
  %.02539.i.i.i.i = phi i64 [ 1, %.preheader.i.i.i.i ], [ %31, %29 ]
  %.02738.i.i.i.i = phi ptr [ %4, %.preheader.i.i.i.i ], [ %30, %29 ]
  %18 = load i64, ptr %13, align 8, !tbaa !55
  %.not32.not.i.i.i.i = icmp eq i64 %18, 0
  %19 = call i64 @llvm.umin.i64(i64 %18, i64 %.02539.i.i.i.i)
  %20 = select i1 %.not32.not.i.i.i.i, i64 %.02539.i.i.i.i, i64 %19
  %21 = load ptr, ptr %14, align 8, !tbaa !56
  %.not33.i.i.i.i = icmp eq ptr %21, null
  br i1 %.not33.i.i.i.i, label %23, label %22

22:                                               ; preds = %17
  call void %21(ptr noundef nonnull %0, ptr noundef %.02738.i.i.i.i, i64 noundef %20) #23
  br label %23

23:                                               ; preds = %22, %17
  %24 = load ptr, ptr %15, align 8, !tbaa !57
  %25 = call i64 %24(ptr noundef nonnull %0, ptr noundef %.02738.i.i.i.i, i64 noundef %20) #23
  %26 = icmp eq i64 %25, 0
  br i1 %26, label %.thread.i.i.i.i, label %29

.thread.i.i.i.i:                                  ; preds = %23
  %27 = load i64, ptr %10, align 8, !tbaa !53
  %28 = or i64 %27, 2
  store i64 %28, ptr %10, align 8, !tbaa !53
  br label %rdbSaveType.exit.thread.i

29:                                               ; preds = %23
  %30 = getelementptr inbounds nuw i8, ptr %.02738.i.i.i.i, i64 %20
  %31 = sub i64 %.02539.i.i.i.i, %20
  %32 = load i64, ptr %16, align 8, !tbaa !58
  %33 = add i64 %32, %20
  store i64 %33, ptr %16, align 8, !tbaa !58
  %.not31.i.i.i.i = icmp eq i64 %31, 0
  br i1 %.not31.i.i.i.i, label %.loopexit.i, label %17

rdbSaveType.exit.thread.i:                        ; preds = %.thread.i.i.i.i, %9
  call void @llvm.lifetime.end.p0(i64 1, ptr nonnull %4)
  br label %rdbSaveAuxField.exit

.loopexit.i:                                      ; preds = %29, %3
  call void @llvm.lifetime.end.p0(i64 1, ptr nonnull %4)
  %34 = call i64 @rdbSaveRawString(ptr noundef %0, ptr noundef nonnull %1, i64 noundef %7)
  %35 = icmp eq i64 %34, -1
  br i1 %35, label %rdbSaveAuxField.exit, label %36

36:                                               ; preds = %.loopexit.i
  %37 = call i64 @rdbSaveRawString(ptr noundef %0, ptr noundef nonnull %5, i64 noundef %8)
  %38 = icmp eq i64 %37, -1
  br i1 %38, label %rdbSaveAuxField.exit, label %39

39:                                               ; preds = %36
  %40 = add nuw nsw i64 %34, 1
  %41 = add nsw i64 %40, %37
  br label %rdbSaveAuxField.exit

rdbSaveAuxField.exit:                             ; preds = %rdbSaveType.exit.thread.i, %.loopexit.i, %36, %39
  %.0.i = phi i64 [ %41, %39 ], [ -1, %.loopexit.i ], [ -1, %36 ], [ -1, %rdbSaveType.exit.thread.i ]
  call void @llvm.lifetime.end.p0(i64 21, ptr nonnull %5) #23
  ret i64 %.0.i
}